target datalayout = "e-m:e-p270:32:32-p271:32:32-p272:64:64-i64:64-i128:128-f80:128-n8:16:32:64-S128"
target triple = "x86_64-pc-linux-gnu"

%struct._urb_info_t = type { i16, i16, i8, i32, i8, i32, i8, i8, i8, i32, ptr, ptr }
%struct._usb_conv_info_t = type { i8, i16, i16, i16, i16, i8, i16, i32, i16, i8, ptr, ptr, i32, ptr }

@hf_ac_if_output_terminalid = internal global i32 0, align 4
@hf_ac_if_output_terminaltype = internal global i32 0, align 4
@hf_ac_if_output_assocterminal = internal global i32 0, align 4
@hf_ac_if_output_sourceid = internal global i32 0, align 4
@hf_ac_if_output_clk_sourceid = internal global i32 0, align 4
@hf_ac_if_output_controls = internal global i32 0, align 4
@hf_ac_if_output_terminal = internal global i32 0, align 4
@ett_ac_if_output_controls = internal global i32 0, align 4

; Function Attrs: null_pointer_is_valid sspstrong uwtable
define internal i32 @dissect_ac_if_output_terminal(ptr noundef %0, i32 noundef %1, ptr noundef %2, ptr noundef %3, ptr noundef %4) #1 {
  %6 = alloca i32, align 4
  %7 = alloca ptr, align 8
  %8 = alloca i32, align 4
  %9 = alloca ptr, align 8
  %10 = alloca ptr, align 8
  %11 = alloca ptr, align 8
  %12 = alloca i32, align 4
  %13 = alloca i32, align 4
  store ptr %0, ptr %7, align 8
  store i32 %1, ptr %8, align 4
  store ptr %2, ptr %9, align 8
  store ptr %3, ptr %10, align 8
  store ptr %4, ptr %11, align 8
  call void @llvm.lifetime.start.p0(i64 4, ptr %12) #11
  %14 = load ptr, ptr %11, align 8
  %15 = getelementptr inbounds nuw %struct._urb_info_t, ptr %14, i32 0, i32 11
  %16 = load ptr, ptr %15, align 8
  %17 = getelementptr inbounds nuw %struct._usb_conv_info_t, ptr %16, i32 0, i32 4
  %18 = load i16, ptr %17, align 8
  %19 = zext i16 %18 to i32
  %20 = icmp eq i32 %19, 0
  br i1 %20, label %30, label %21

21:                                               ; preds = %5
  %22 = load ptr, ptr %11, align 8
  %23 = getelementptr inbounds nuw %struct._urb_info_t, ptr %22, i32 0, i32 11
  %24 = load ptr, ptr %23, align 8
  %25 = getelementptr inbounds nuw %struct._usb_conv_info_t, ptr %24, i32 0, i32 4
  %26 = load i16, ptr %25, align 8
  %27 = zext i16 %26 to i32
  %28 = icmp eq i32 %27, 32
  br i1 %28, label %30, label %29

29:                                               ; preds = %21
  store i32 0, ptr %6, align 4
  store i32 1, ptr %13, align 4
  br label %94

30:                                               ; preds = %21, %5
  %31 = load i32, ptr %8, align 4
  store i32 %31, ptr %12, align 4
  %32 = load ptr, ptr %10, align 8
  %33 = load i32, ptr @hf_ac_if_output_terminalid, align 4
  %34 = load ptr, ptr %7, align 8
  %35 = load i32, ptr %8, align 4
  %36 = call ptr @proto_tree_add_item(ptr noundef %32, i32 noundef %33, ptr noundef %34, i32 noundef %35, i32 noundef 1, i32 noundef -2147483648)
  %37 = load i32, ptr %8, align 4
  %38 = add i32 %37, 1
  store i32 %38, ptr %8, align 4
  %39 = load ptr, ptr %10, align 8
  %40 = load i32, ptr @hf_ac_if_output_terminaltype, align 4
  %41 = load ptr, ptr %7, align 8
  %42 = load i32, ptr %8, align 4
  %43 = call ptr @proto_tree_add_item(ptr noundef %39, i32 noundef %40, ptr noundef %41, i32 noundef %42, i32 noundef 2, i32 noundef -2147483648)
  %44 = load i32, ptr %8, align 4
  %45 = add i32 %44, 2
  store i32 %45, ptr %8, align 4
  %46 = load ptr, ptr %10, align 8
  %47 = load i32, ptr @hf_ac_if_output_assocterminal, align 4
  %48 = load ptr, ptr %7, align 8
  %49 = load i32, ptr %8, align 4
  %50 = call ptr @proto_tree_add_item(ptr noundef %46, i32 noundef %47, ptr noundef %48, i32 noundef %49, i32 noundef 1, i32 noundef -2147483648)
  %51 = load i32, ptr %8, align 4
  %52 = add i32 %51, 1
  store i32 %52, ptr %8, align 4
  %53 = load ptr, ptr %10, align 8
  %54 = load i32, ptr @hf_ac_if_output_sourceid, align 4
  %55 = load ptr, ptr %7, align 8
  %56 = load i32, ptr %8, align 4
  %57 = call ptr @proto_tree_add_item(ptr noundef %53, i32 noundef %54, ptr noundef %55, i32 noundef %56, i32 noundef 1, i32 noundef -2147483648)
  %58 = load i32, ptr %8, align 4
  %59 = add i32 %58, 1
  store i32 %59, ptr %8, align 4
  %60 = load ptr, ptr %11, align 8
  %61 = getelementptr inbounds nuw %struct._urb_info_t, ptr %60, i32 0, i32 11
  %62 = load ptr, ptr %61, align 8
  %63 = getelementptr inbounds nuw %struct._usb_conv_info_t, ptr %62, i32 0, i32 4
  %64 = load i16, ptr %63, align 8
  %65 = zext i16 %64 to i32
  %66 = icmp eq i32 %65, 32
  br i1 %66, label %67, label %83

67:                                               ; preds = %30
  %68 = load ptr, ptr %10, align 8
  %69 = load i32, ptr @hf_ac_if_output_clk_sourceid, align 4
  %70 = load ptr, ptr %7, align 8
  %71 = load i32, ptr %8, align 4
  %72 = call ptr @proto_tree_add_item(ptr noundef %68, i32 noundef %69, ptr noundef %70, i32 noundef %71, i32 noundef 1, i32 noundef -2147483648)
  %73 = load i32, ptr %8, align 4
  %74 = add i32 %73, 1
  store i32 %74, ptr %8, align 4
  %75 = load ptr, ptr %10, align 8
  %76 = load ptr, ptr %7, align 8
  %77 = load i32, ptr %8, align 4
  %78 = load i32, ptr @hf_ac_if_output_controls, align 4
  %79 = load i32, ptr @ett_ac_if_output_controls, align 4
  %80 = call ptr @proto_tree_add_bitmask(ptr noundef %75, ptr noundef %76, i32 noundef %77, i32 noundef %78, i32 noundef %79, ptr noundef @dissect_ac_if_output_terminal.controls, i32 noundef -2147483648)
  %81 = load i32, ptr %8, align 4
  %82 = add i32 %81, 2
  store i32 %82, ptr %8, align 4
  br label %83

83:                                               ; preds = %67, %30
  %84 = load ptr, ptr %10, align 8
  %85 = load i32, ptr @hf_ac_if_output_terminal, align 4
  %86 = load ptr, ptr %7, align 8
  %87 = load i32, ptr %8, align 4
  %88 = call ptr @proto_tree_add_item(ptr noundef %84, i32 noundef %85, ptr noundef %86, i32 noundef %87, i32 noundef 1, i32 noundef -2147483648)
  %89 = load i32, ptr %8, align 4
  %90 = add i32 %89, 1
  store i32 %90, ptr %8, align 4
  %91 = load i32, ptr %8, align 4
  %92 = load i32, ptr %12, align 4
  %93 = sub i32 %91, %92
  store i32 %93, ptr %6, align 4
  store i32 1, ptr %13, align 4
  br label %94

94:                                               ; preds = %83, %29
  call void @llvm.lifetime.end.p0(i64 4, ptr %12) #11
  %95 = load i32, ptr %6, align 4
  ret i32 %95
}