; Function Attrs: null_pointer_is_valid sspstrong uwtable
define internal fastcc range(i32 0, 10) i32 @dissect_ac_if_output_terminal(ptr noundef %0, ptr noundef %1, ptr noundef readonly captures(none) %2) unnamed_addr #1 {
  %4 = getelementptr inbounds nuw i8, ptr %2, i64 40
  %5 = load ptr, ptr %4, align 8
  %6 = getelementptr inbounds nuw i8, ptr %5, i64 8
  %7 = load i16, ptr %6, align 8
  switch i16 %7, label %31 [
    i16 0, label %8
    i16 32, label %8
  ]

8:                                                ; preds = %3, %3
  %9 = load i32, ptr @hf_ac_if_output_terminalid, align 4
  %10 = tail call ptr @proto_tree_add_item(ptr noundef %1, i32 noundef %9, ptr noundef %0, i32 noundef 3, i32 noundef 1, i32 noundef -2147483648)
  %11 = load i32, ptr @hf_ac_if_output_terminaltype, align 4
  %12 = tail call ptr @proto_tree_add_item(ptr noundef %1, i32 noundef %11, ptr noundef %0, i32 noundef 4, i32 noundef 2, i32 noundef -2147483648)
  %13 = load i32, ptr @hf_ac_if_output_assocterminal, align 4
  %14 = tail call ptr @proto_tree_add_item(ptr noundef %1, i32 noundef %13, ptr noundef %0, i32 noundef 6, i32 noundef 1, i32 noundef -2147483648)
  %15 = load i32, ptr @hf_ac_if_output_sourceid, align 4
  %16 = tail call ptr @proto_tree_add_item(ptr noundef %1, i32 noundef %15, ptr noundef %0, i32 noundef 7, i32 noundef 1, i32 noundef -2147483648)
  %17 = load ptr, ptr %4, align 8
  %18 = getelementptr inbounds nuw i8, ptr %17, i64 8
  %19 = load i16, ptr %18, align 8
  %20 = icmp eq i16 %19, 32
  br i1 %20, label %21, label %27

21:                                               ; preds = %8
  %22 = load i32, ptr @hf_ac_if_output_clk_sourceid, align 4
  %23 = tail call ptr @proto_tree_add_item(ptr noundef %1, i32 noundef %22, ptr noundef %0, i32 noundef 8, i32 noundef 1, i32 noundef -2147483648)
  %24 = load i32, ptr @hf_ac_if_output_controls, align 4
  %25 = load i32, ptr @ett_ac_if_output_controls, align 4
  %26 = tail call ptr @proto_tree_add_bitmask(ptr noundef %1, ptr noundef %0, i32 noundef 9, i32 noundef %24, i32 noundef %25, ptr noundef nonnull @dissect_ac_if_output_terminal.controls, i32 noundef -2147483648)
  br label %27

27:                                               ; preds = %21, %8
  %.034 = phi i32 [ 11, %21 ], [ 8, %8 ]
  %28 = load i32, ptr @hf_ac_if_output_terminal, align 4
  %29 = tail call ptr @proto_tree_add_item(ptr noundef %1, i32 noundef %28, ptr noundef %0, i32 noundef %.034, i32 noundef 1, i32 noundef -2147483648)
  %30 = add nsw i32 %.034, -2
  br label %31

31:                                               ; preds = %3, %27
  %.0 = phi i32 [ %30, %27 ], [ 0, %3 ]
  ret i32 %.0
}